; Function Attrs: mustprogress nofree norecurse nosync nounwind willreturn memory(write, argmem: readwrite, inaccessiblemem: none) uwtable
define hidden noundef i32 @mbedtls_ssl_start_handshake_msg(ptr noundef captures(none) initializes((392, 396)) %0, i8 noundef zeroext %1, ptr noundef writeonly captures(none) initializes((0, 8)) %2, ptr noundef writeonly captures(none) initializes((0, 8)) %3) local_unnamed_addr #9 {
  %5 = getelementptr inbounds nuw i8, ptr %0, i64 384
  %6 = load ptr, ptr %5, align 8, !tbaa !105
  %7 = getelementptr inbounds nuw i8, ptr %6, i64 4
  store ptr %7, ptr %2, align 8, !tbaa !138
  store i64 16380, ptr %3, align 8, !tbaa !56
  %8 = getelementptr inbounds nuw i8, ptr %0, i64 392
  store i32 22, ptr %8, align 8, !tbaa !118
  %9 = load ptr, ptr %5, align 8, !tbaa !105
  store i8 %1, ptr %9, align 1, !tbaa !32
  ret i32 0
}